target datalayout = "e-m:e-p270:32:32-p271:32:32-p272:64:64-i64:64-i128:128-f80:128-n8:16:32:64-S128"
target triple = "x86_64-pc-linux-gnu"

%struct.PageHeaderData = type { %struct.PageXLogRecPtr, i16, i16, i16, i16, i16, i16, i32, [0 x %struct.ItemIdData] }
%struct.PageXLogRecPtr = type { i32, i32 }
%struct.ItemIdData = type { i32 }
%struct.HashPageOpaqueData = type { i32, i32, i32, i16, i16 }

@LocalBufferBlockPointers = external global ptr, align 8
@BufferBlocks = external global ptr, align 8

; Function Attrs: inlinehint nounwind uwtable
define internal ptr @BufferGetBlock(i32 noundef %0) #4 {
  %2 = alloca ptr, align 8
  %3 = alloca i32, align 4
  store i32 %0, ptr %3, align 4
  %4 = load i32, ptr %3, align 4
  %5 = icmp slt i32 %4, 0
  br i1 %5, label %6, label %14

6:                                                ; preds = %1
  %7 = load ptr, ptr @LocalBufferBlockPointers, align 8
  %8 = load i32, ptr %3, align 4
  %9 = sub i32 0, %8
  %10 = sub i32 %9, 1
  %11 = sext i32 %10 to i64
  %12 = getelementptr inbounds ptr, ptr %7, i64 %11
  %13 = load ptr, ptr %12, align 8
  store ptr %13, ptr %2, align 8
  br label %21

14:                                               ; preds = %1
  %15 = load ptr, ptr @BufferBlocks, align 8
  %16 = load i32, ptr %3, align 4
  %17 = sub i32 %16, 1
  %18 = sext i32 %17 to i64
  %19 = mul i64 %18, 8192
  %20 = getelementptr inbounds nuw i8, ptr %15, i64 %19
  store ptr %20, ptr %2, align 8
  br label %21

21:                                               ; preds = %14, %6
  %22 = load ptr, ptr %2, align 8
  ret ptr %22
}

; Function Attrs: inlinehint nounwind uwtable
define internal void @PageValidateSpecialPointer(ptr noundef %0) #4 {
  %2 = alloca ptr, align 8
  store ptr %0, ptr %2, align 8
  ret void
}

; Function Attrs: nounwind uwtable
define dso_local void @_hash_pageinit(ptr noundef %0, i64 noundef %1) #0 {
  %3 = alloca ptr, align 8
  %4 = alloca i64, align 8
  store ptr %0, ptr %3, align 8
  store i64 %1, ptr %4, align 8
  %5 = load ptr, ptr %3, align 8
  %6 = load i64, ptr %4, align 8
  call void @PageInit(ptr noundef %5, i64 noundef %6, i64 noundef 16)
  ret void
}

; Function Attrs: inlinehint nounwind uwtable
define internal i64 @BufferGetPageSize(i32 noundef %0) #4 {
  %2 = alloca i32, align 4
  store i32 %0, ptr %2, align 4
  ret i64 8192
}

; Function Attrs: inlinehint nounwind uwtable
define internal ptr @BufferGetPage(i32 noundef %0) #4 {
  %2 = alloca i32, align 4
  store i32 %0, ptr %2, align 4
  %3 = load i32, ptr %2, align 4
  %4 = call ptr @BufferGetBlock(i32 noundef %3)
  ret ptr %4
}

; Function Attrs: nounwind uwtable
define dso_local void @_hash_initbuf(i32 noundef %0, i32 noundef %1, i32 noundef %2, i32 noundef %3, i1 noundef zeroext %4) #0 {
  %6 = alloca i32, align 4
  %7 = alloca i32, align 4
  %8 = alloca i32, align 4
  %9 = alloca i32, align 4
  %10 = alloca i8, align 1
  %11 = alloca ptr, align 8
  %12 = alloca ptr, align 8
  store i32 %0, ptr %6, align 4
  store i32 %1, ptr %7, align 4
  store i32 %2, ptr %8, align 4
  store i32 %3, ptr %9, align 4
  %13 = zext i1 %4 to i8
  store i8 %13, ptr %10, align 1
  call void @llvm.lifetime.start.p0(i64 8, ptr %11) #9
  call void @llvm.lifetime.start.p0(i64 8, ptr %12) #9
  %14 = load i32, ptr %6, align 4
  %15 = call ptr @BufferGetPage(i32 noundef %14)
  store ptr %15, ptr %12, align 8
  %16 = load i8, ptr %10, align 1, !range !4, !noundef !5
  %17 = trunc i8 %16 to i1
  br i1 %17, label %18, label %22

18:                                               ; preds = %5
  %19 = load ptr, ptr %12, align 8
  %20 = load i32, ptr %6, align 4
  %21 = call i64 @BufferGetPageSize(i32 noundef %20)
  call void @_hash_pageinit(ptr noundef %19, i64 noundef %21)
  br label %22

22:                                               ; preds = %18, %5
  %23 = load ptr, ptr %12, align 8
  call void @PageValidateSpecialPointer(ptr noundef %23)
  %24 = load ptr, ptr %12, align 8
  %25 = load ptr, ptr %12, align 8
  %26 = getelementptr inbounds nuw %struct.PageHeaderData, ptr %25, i32 0, i32 5
  %27 = load i16, ptr %26, align 4
  %28 = zext i16 %27 to i32
  %29 = sext i32 %28 to i64
  %30 = getelementptr inbounds i8, ptr %24, i64 %29
  store ptr %30, ptr %11, align 8
  %31 = load i32, ptr %7, align 4
  %32 = load ptr, ptr %11, align 8
  %33 = getelementptr inbounds nuw %struct.HashPageOpaqueData, ptr %32, i32 0, i32 0
  store i32 %31, ptr %33, align 4
  %34 = load ptr, ptr %11, align 8
  %35 = getelementptr inbounds nuw %struct.HashPageOpaqueData, ptr %34, i32 0, i32 1
  store i32 -1, ptr %35, align 4
  %36 = load i32, ptr %8, align 4
  %37 = load ptr, ptr %11, align 8
  %38 = getelementptr inbounds nuw %struct.HashPageOpaqueData, ptr %37, i32 0, i32 2
  store i32 %36, ptr %38, align 4
  %39 = load i32, ptr %9, align 4
  %40 = trunc i32 %39 to i16
  %41 = load ptr, ptr %11, align 8
  %42 = getelementptr inbounds nuw %struct.HashPageOpaqueData, ptr %41, i32 0, i32 3
  store i16 %40, ptr %42, align 4
  %43 = load ptr, ptr %11, align 8
  %44 = getelementptr inbounds nuw %struct.HashPageOpaqueData, ptr %43, i32 0, i32 4
  store i16 -128, ptr %44, align 2
  call void @llvm.lifetime.end.p0(i64 8, ptr %12) #9
  call void @llvm.lifetime.end.p0(i64 8, ptr %11) #9
  ret void
}