; Function Attrs: nounwind uwtable
define dso_local void @_hash_initbuf(i32 noundef %0, i32 noundef %1, i32 noundef %2, i32 noundef %3, i1 noundef zeroext %4) local_unnamed_addr #0 {
  %6 = icmp slt i32 %0, 0
  br i1 %6, label %7, label %13

7:                                                ; preds = %5
  %8 = load ptr, ptr @LocalBufferBlockPointers, align 8
  %9 = xor i32 %0, -1
  %10 = zext nneg i32 %9 to i64
  %11 = getelementptr inbounds nuw ptr, ptr %8, i64 %10
  %12 = load ptr, ptr %11, align 8
  br label %BufferGetPage.exit

13:                                               ; preds = %5
  %14 = load ptr, ptr @BufferBlocks, align 8
  %15 = add nsw i32 %0, -1
  %16 = sext i32 %15 to i64
  %17 = shl nsw i64 %16, 13
  %18 = getelementptr inbounds nuw i8, ptr %14, i64 %17
  br label %BufferGetPage.exit

BufferGetPage.exit:                               ; preds = %7, %13
  %.0.i.i = phi ptr [ %12, %7 ], [ %18, %13 ]
  br i1 %4, label %19, label %20

19:                                               ; preds = %BufferGetPage.exit
  tail call void @PageInit(ptr noundef %.0.i.i, i64 noundef 8192, i64 noundef 16) #10
  br label %20

20:                                               ; preds = %19, %BufferGetPage.exit
  %21 = getelementptr inbounds nuw i8, ptr %.0.i.i, i64 16
  %22 = load i16, ptr %21, align 4
  %23 = zext i16 %22 to i64
  %24 = getelementptr inbounds nuw i8, ptr %.0.i.i, i64 %23
  store i32 %1, ptr %24, align 4
  %25 = getelementptr inbounds nuw i8, ptr %24, i64 4
  store i32 -1, ptr %25, align 4
  %26 = getelementptr inbounds nuw i8, ptr %24, i64 8
  store i32 %2, ptr %26, align 4
  %27 = trunc i32 %3 to i16
  %28 = getelementptr inbounds nuw i8, ptr %24, i64 12
  store i16 %27, ptr %28, align 4
  %29 = getelementptr inbounds nuw i8, ptr %24, i64 14
  store i16 -128, ptr %29, align 2
  ret void
}